Certificate:
    Data:
        Version: 3 (0x2)
        Serial Number: 8 (0x8)
        Signature Algorithm: sha256WithRSAEncryption
        Issuer: C=FR, ST=Some-State, L=Paris, O=EPITAF, OU=Users, CN=EPITAF/emailAddress=groupe2@epitaf.local
        Validity
            Not Before: Sep 23 13:11:10 2025 GMT
            Not After : Jul 20 13:11:10 2026 GMT
        Subject: C=FR, ST=Some-State, O=EPITAF, OU=Users-infra01_v2, CN=dc01.epitaf.local/emailAddress=infra01_v2@epitaf.local
        Subject Public Key Info:
            Public Key Algorithm: rsaEncryption
                Public-Key: (2048 bit)
                Modulus:
                    00:dc:bf:26:1e:56:c7:cc:9d:65:91:03:be:25:ef:
                    c0:b7:00:bc:46:74:12:aa:10:08:02:85:1c:32:f1:
                    2d:76:63:57:e8:68:5f:f2:cf:c9:d3:70:fe:1f:7b:
                    2d:f0:ca:59:dc:70:b9:00:33:73:c4:f8:f2:0f:7f:
                    d4:e2:e2:7c:0c:97:cd:eb:d4:ee:63:b9:79:c5:e3:
                    c9:32:19:de:08:91:3a:19:c1:6e:ac:64:6e:91:eb:
                    c9:3c:45:c9:e9:f0:04:9d:1d:31:06:fb:11:21:91:
                    58:e3:8c:e5:6d:56:99:66:d8:0d:9c:0b:c0:f3:df:
                    7c:49:69:3a:ff:4a:a8:bb:4f:13:ef:94:61:87:16:
                    df:7b:f9:43:1e:dc:44:97:80:32:84:6d:84:c4:a9:
                    99:4e:00:55:57:6e:12:34:24:87:36:d7:62:33:28:
                    e3:8b:74:ab:03:b5:34:2b:e9:93:76:32:43:1d:ef:
                    64:ed:c7:c4:07:7e:92:6c:e0:da:4c:1d:80:9d:9e:
                    f7:7a:1e:16:09:59:26:28:ae:79:4f:4c:ac:20:cd:
                    c4:b9:67:14:09:d9:dc:1f:0c:b1:6c:b0:77:55:b0:
                    85:9a:71:15:54:e8:94:da:19:e7:e2:78:8d:f9:c4:
                    c1:7c:7c:6e:d3:0c:40:d1:cf:7a:23:6f:e0:da:e9:
                    87:d9
                Exponent: 65537 (0x10001)
        X509v3 extensions:
            X509v3 Basic Constraints: 
                CA:FALSE
            Netscape Cert Type: 
                SSL Server
            Netscape Comment: 
                Certificat serveur
            X509v3 Key Usage: 
                Digital Signature, Key Encipherment
            X509v3 Extended Key Usage: 
                TLS Web Server Authentication
            X509v3 Subject Alternative Name: 
                DNS:epitaf.local, DNS:*.epitaf.local, IP Address:192.168.2.2
            X509v3 Subject Key Identifier: 
                3F:50:04:1A:4F:45:9B:89:DE:2F:EA:C1:98:7D:80:56:58:FA:C5:42
            X509v3 Authority Key Identifier: 
                BF:68:21:C6:A0:A1:08:A5:C8:4B:35:C7:D6:56:F7:03:DF:18:99:8E
    Signature Algorithm: sha256WithRSAEncryption
    Signature Value:
        0e:47:ef:7f:e5:7d:c4:72:bb:19:df:89:ae:55:4c:63:de:a2:
        2e:ef:af:fd:e1:49:b9:a6:84:6b:3f:d8:14:cf:fb:89:8b:b6:
        be:97:5a:07:b3:9f:f3:2c:a2:7b:99:6a:82:12:7b:6c:96:2e:
        ad:7b:ca:84:ea:a6:13:31:7d:03:0b:ee:2c:00:c7:0b:8b:1b:
        be:09:ae:fc:68:12:51:10:55:98:e5:1d:76:1f:ba:1b:cd:ad:
        03:ae:a8:1b:2a:8c:ff:7b:2a:c3:0c:c6:8d:ba:85:d4:c5:64:
        84:28:a5:ff:d1:52:37:fe:78:5c:97:86:5f:9e:5d:5e:80:dd:
        c2:64:af:44:95:9f:d9:f5:d1:52:3a:cb:cf:44:7e:5b:a8:0f:
        42:fa:e8:a9:b5:9b:56:76:20:d1:2c:80:53:7e:94:0a:ad:7b:
        11:b4:55:0f:b0:f1:fc:6f:3f:c6:3b:23:27:ba:33:5c:e5:36:
        ab:73:c5:90:76:7b:7c:28:25:42:1c:36:a9:09:f8:7e:df:b4:
        88:f4:52:7d:b7:52:2d:9d:82:81:96:73:ff:24:cd:7d:05:0c:
        50:c9:4d:bc:25:3b:4d:e8:ab:e0:fe:0a:fe:38:a6:92:92:c0:
        c0:25:2e:83:36:f3:ba:aa:0a:26:95:47:f7:68:25:58:e3:06:
        ef:fa:c5:43:7b:42:1d:21:04:a3:d4:1c:99:e1:f1:08:5f:b1:
        75:9f:23:35:e9:35:78:8c:be:ab:77:a9:2b:5b:31:a6:eb:0e:
        21:c5:d6:7d:06:6c:50:2a:30:ec:ee:26:98:96:c9:22:3c:8a:
        8a:ef:94:b6:fc:72:85:bf:64:b9:f5:81:b2:e5:f4:e8:b8:17:
        fb:b9:30:31:1c:0e:86:97:1d:30:03:91:d4:29:a1:83:6b:5a:
        2d:22:83:60:64:b1:16:30:20:3b:12:65:e2:c7:19:3b:19:d6:
        1a:ed:92:5e:c3:07:b1:7c:de:da:86:f0:74:73:3f:1a:ac:71:
        c2:e1:e7:b0:52:6f:62:db:ae:3e:0a:90:00:b8:be:9b:8f:4e:
        ff:67:68:b7:d7:16:81:bf:5d:b2:4e:7f:73:39:fa:b7:81:1b:
        b8:e4:3c:e6:e8:92:8f:c5:fc:0c:92:29:f0:c5:19:f1:00:f5:
        ab:65:4f:b4:d4:a4:81:44:97:6e:ad:6b:9a:e4:87:85:f0:13:
        f7:bc:00:12:62:5f:ec:77:c7:ae:3e:10:c4:d3:7b:f9:09:c1:
        d1:a9:06:c8:f8:d9:e5:74:0b:ff:28:7c:f4:7b:1c:90:68:8b:
        04:92:1f:b9:08:67:a0:ff:61:46:4f:ff:df:eb:39:43:81:6f:
        03:48:8f:86:a1:94:82:b8
-----BEGIN CERTIFICATE-----
MIIFbjCCA1agAwIBAgIBCDANBgkqhkiG9w0BAQsFADCBiTELMAkGA1UEBhMCRlIx
EzARBgNVBAgMClNvbWUtU3RhdGUxDjAMBgNVBAcMBVBhcmlzMQ8wDQYDVQQKDAZF
UElUQUYxDjAMBgNVBAsMBVVzZXJzMQ8wDQYDVQQDDAZFUElUQUYxIzAhBgkqhkiG
9w0BCQEWFGdyb3VwZTJAZXBpdGFmLmxvY2FsMB4XDTI1MDkyMzEzMTExMFoXDTI2
MDcyMDEzMTExMFowgZIxCzAJBgNVBAYTAkZSMRMwEQYDVQQIDApTb21lLVN0YXRl
MQ8wDQYDVQQKDAZFUElUQUYxGTAXBgNVBAsMEFVzZXJzLWluZnJhMDFfdjIxGjAY
BgNVBAMMEWRjMDEuZXBpdGFmLmxvY2FsMSYwJAYJKoZIhvcNAQkBFhdpbmZyYTAx
X3YyQGVwaXRhZi5sb2NhbDCCASIwDQYJKoZIhvcNAQEBBQADggEPADCCAQoCggEB
ANy/Jh5Wx8ydZZEDviXvwLcAvEZ0EqoQCAKFHDLxLXZjV+hoX/LPydNw/h97LfDK
WdxwuQAzc8T48g9/1OLifAyXzevU7mO5ecXjyTIZ3giROhnBbqxkbpHryTxFyenw
BJ0dMQb7ESGRWOOM5W1WmWbYDZwLwPPffElpOv9KqLtPE++UYYcW33v5Qx7cRJeA
MoRthMSpmU4AVVduEjQkhzbXYjMo44t0qwO1NCvpk3YyQx3vZO3HxAd+kmzg2kwd
gJ2e93oeFglZJiiueU9MrCDNxLlnFAnZ3B8MsWywd1WwhZpxFVTolNoZ5+J4jfnE
wXx8btMMQNHPeiNv4Nrph9kCAwEAAaOB1TCB0jAJBgNVHRMEAjAAMBEGCWCGSAGG
+EIBAQQEAwIGQDAhBglghkgBhvhCAQ0EFBYSQ2VydGlmaWNhdCBzZXJ2ZXVyMAsG
A1UdDwQEAwIFoDATBgNVHSUEDDAKBggrBgEFBQcDATAtBgNVHREEJjAkggxlcGl0
YWYubG9jYWyCDiouZXBpdGFmLmxvY2FshwTAqAICMB0GA1UdDgQWBBQ/UAQaT0Wb
id4v6sGYfYBWWPrFQjAfBgNVHSMEGDAWgBS/aCHGoKEIpchLNcfWVvcD3xiZjjAN
BgkqhkiG9w0BAQsFAAOCAgEADkfvf+V9xHK7Gd+JrlVMY96iLu+v/eFJuaaEaz/Y
FM/7iYu2vpdaB7Of8yyie5lqghJ7bJYurXvKhOqmEzF9AwvuLADHC4sbvgmu/GgS
URBVmOUddh+6G82tA66oGyqM/3sqwwzGjbqF1MVkhCil/9FSN/54XJeGX55dXoDd
wmSvRJWf2fXRUjrLz0R+W6gPQvroqbWbVnYg0SyAU36UCq17EbRVD7Dx/G8/xjsj
J7ozXOU2q3PFkHZ7fCglQhw2qQn4ft+0iPRSfbdSLZ2CgZZz/yTNfQUMUMlNvCU7
Teir4P4K/jimkpLAwCUugzbzuqoKJpVH92glWOMG7/rFQ3tCHSEEo9QcmeHxCF+x
dZ8jNek1eIy+q3epK1sxpusOIcXWfQZsUCow7O4mmJbJIjyKiu+Utvxyhb9kufWB
suX06LgX+7kwMRwOhpcdMAOR1Cmhg2taLSKDYGSxFjAgOxJl4scZOxnWGu2SXsMH
sXze2obwdHM/GqxxwuHnsFJvYtuuPgqQALi+m49O/2dot9cWgb9dsk5/czn6t4Eb
uOQ85uiSj8X8DJIp8MUZ8QD1q2VPtNSkgUSXbq1rmuSHhfAT97wAEmJf7HfHrj4Q
xNN7+QnB0akGyPjZ5XQL/yh89HsckGiLBJIfuQhnoP9hRk//3+s5Q4FvA0iPhqGU
grg=
-----END CERTIFICATE-----
-----BEGIN CERTIFICATE-----
MIIGfjCCBGagAwIBAgIULM/pS2O6k7uio1wA2EzT5e6SGFgwDQYJKoZIhvcNAQEL
BQAwgYkxCzAJBgNVBAYTAkZSMRMwEQYDVQQIDApTb21lLVN0YXRlMQ4wDAYDVQQH
DAVQYXJpczEPMA0GA1UECgwGRVBJVEFGMQ4wDAYDVQQLDAVVc2VyczEPMA0GA1UE
AwwGRVBJVEFGMSMwIQYJKoZIhvcNAQkBFhRncm91cGUyQGVwaXRhZi5sb2NhbDAe
Fw0yNTA0MTMwNzE3NDhaFw0yNjA0MTMwNzE3NDhaMIGJMQswCQYDVQQGEwJGUjET
MBEGA1UECAwKU29tZS1TdGF0ZTEOMAwGA1UEBwwFUGFyaXMxDzANBgNVBAoMBkVQ
SVRBRjEOMAwGA1UECwwFVXNlcnMxDzANBgNVBAMMBkVQSVRBRjEjMCEGCSqGSIb3
DQEJARYUZ3JvdXBlMkBlcGl0YWYubG9jYWwwggIiMA0GCSqGSIb3DQEBAQUAA4IC
DwAwggIKAoICAQDhVUcuRMCpCZ1AssWvAD02Y8yZ2BQ6+4LGADDeVL5+QSzRT5co
gmM7tEpj0Y4FONdlKFIVtHGPe38hn0Dz9epCVNWJA99HOHnYpKiMe8aZYxC8Pqoh
VqqNklf3mclVHJN8P1NAwFlDq3JwM8LK8Ba3FlezZX2aR0zpOPYY8EvzV+gqfLsv
qKr6O1uk3WuQD8SCSBL5KdNJ2L+mLhCo67NgND1Jj0Fryo0aLZbsRldgVsJ2DaUv
6x8j05u4/3j1jqissmVbuEY/nC3gQtPP/909QFwUyJ7cq4Nn19rznvvfLGSgKxSd
Bj+4rI8dAv/4eZf/4ndJq5m4lJwkcjqozw1D0hDxJnZLfWztNtO6n5yVTk9i+3Fq
816KnOif4riAMTUcf8piuHQnv6Yj285VxA58g8zPEaadJzdC+7Oi1tiqRzKzWQcJ
D6gvNoO/qdz+Hr2VEsa74SgyFh0XvqwSWdwiSj516miqnocGBCCFTALGB7vSN5Qc
gMc+Tonm1rc08RLEkpE94EY7FujX2OvhW91IGVZIqCgqY0Vy/4I9n4PUtO8fgH1n
AgiFN/WwZLLkbBTZLwZo2mvJTcsRC+xRCWtD0t7ZZir805vlLFj1ZEUZNyZZqftV
XvhnAHJsiGrdmeXre07rYAotV9zhy70V55w2l4kmE4nLVWM5K4iaeH2DCwIDAQAB
o4HbMIHYMB0GA1UdDgQWBBS/aCHGoKEIpchLNcfWVvcD3xiZjjAfBgNVHSMEGDAW
gBS/aCHGoKEIpchLNcfWVvcD3xiZjjAPBgNVHRMBAf8EBTADAQH/MA4GA1UdDwEB
/wQEAwIBhjAeBglghkgBhvhCAQ0EERYPTWluaVBLSSBSb290IENBMCYGCWCGSAGG
+EIBBAQZFhdodHRwOi8vbG9jYWxob3N0L2NhLmNybDAtBggrBgEFBQcBAQQhMB8w
HQYIKwYBBQUHMAGGEWh0dHA6Ly9sb2NhbGhvc3QvMA0GCSqGSIb3DQEBCwUAA4IC
AQB9+L6aQ3bRft9oQbYFfdUOmUQDOiksHYtSdrObjaSH+Euf788Fjhkjdn2+V8+R
Hbx2GwxoUDjFJwGV/XpIZmfqAUu2LLFLq1SWizi2S5etfzpOcMrDpphiTvFsNTJ8
aygLEtdnMXvBPIKvlDFlDYCn2KvB/QbD1cklA08kFkvBRzG20zY9/+CALc/ZO7NV
PlUodqYAA8xpYQDDcoNO35F90rBAuZZPEmDaR1wMd7e7rPwtAFGK6n3kqDcfpd0i
qJRTNlQxWwFraudtL5AIffc9TEbQFuXjSuG7k7QNT6jCenW/p1Z3HCV2uu3q+K47
3XLQ8PMOGEb50VA2kWKc+MXJ7kM8sQrKm9WkSx+6b76OMPdrOqew4rJrwEMFT26F
vd/P2PEx6JHJ5jq/1ezdwNVv5EKYy813/5/xvAGf+fSdCmbqrq2pTTlRXr/aqQIF
0kEqAo3OyxFMrnE5gm8MucC3uIuq0/4BLSkpDAoIH+swnMCabE2Y7M8HsGJWtQwD
BvUxH3lXQAADnGVUnc3C0ZUIA83mC2hYIFCrjTHwC4/VIN2IoaO4P8qDGxOYyC+A
x/905ore56Ag4ZmvaS0nn+oYqAr1ELSAcXfN8ppTk7svZOzBmUJntB0BhdzAz1GK
KewgI1uEi0vtlKKHGXhziyX2HDFw/PtuyC+NQfSJIyflRw==
-----END CERTIFICATE-----
